; Function Attrs: mustprogress nounwind uwtable
define hidden noundef ptr @_ZN13VectorSupport15allocate_vectorEP13InstanceKlassP5frameP11RegisterMapP11ObjectValueP10JavaThread(ptr noundef %0, ptr nocapture noundef readonly %1, ptr noundef %2, ptr noundef %3, ptr noundef %4) local_unnamed_addr #0 align 2 {
  %6 = load ptr, ptr %3, align 8
  %7 = getelementptr inbounds i8, ptr %6, i64 104
  %8 = load ptr, ptr %7, align 8
  %9 = tail call noundef ptr %8(ptr noundef nonnull align 8 dereferenceable(59) %3, i32 noundef 0) #8
  %10 = load ptr, ptr %9, align 8
  %11 = load ptr, ptr %10, align 8
  %12 = tail call noundef zeroext i1 %11(ptr noundef nonnull align 8 dereferenceable(8) %9) #8
  br i1 %12, label %13, label %_ZN13VectorSupport23allocate_vector_payloadEP13InstanceKlassP5frameP11RegisterMapP10ScopeValueP10JavaThread.exit

13:                                               ; preds = %5
  %14 = getelementptr inbounds i8, ptr %9, i64 8
  %.sroa.0.0.copyload.i.i = load i32, ptr %14, align 8
  %15 = and i32 %.sroa.0.0.copyload.i.i, 15
  %16 = icmp eq i32 %15, 7
  br i1 %16, label %17, label %_ZN13VectorSupport23allocate_vector_payloadEP13InstanceKlassP5frameP11RegisterMapP10ScopeValueP10JavaThread.exit

17:                                               ; preds = %13
  %18 = tail call ptr @_ZN13VectorSupport30allocate_vector_payload_helperEP13InstanceKlassP5frameP11RegisterMap8LocationP10JavaThread(ptr noundef %0, ptr noundef readonly %1, ptr noundef %2, i32 %.sroa.0.0.copyload.i.i, ptr noundef %4)
  br label %_ZN13VectorSupport23allocate_vector_payloadEP13InstanceKlassP5frameP11RegisterMapP10ScopeValueP10JavaThread.exit

_ZN13VectorSupport23allocate_vector_payloadEP13InstanceKlassP5frameP11RegisterMapP10ScopeValueP10JavaThread.exit: ; preds = %5, %13, %17
  %.sroa.08.0.i = phi ptr [ %18, %17 ], [ null, %13 ], [ null, %5 ]
  %19 = getelementptr inbounds i8, ptr %4, i64 8
  %20 = load ptr, ptr %19, align 8
  %.not = icmp eq ptr %20, null
  br i1 %.not, label %21, label %29

21:                                               ; preds = %_ZN13VectorSupport23allocate_vector_payloadEP13InstanceKlassP5frameP11RegisterMapP10ScopeValueP10JavaThread.exit
  %22 = tail call noundef ptr @_ZN13InstanceKlass17allocate_instanceEP10JavaThread(ptr noundef nonnull align 8 dereferenceable(464) %0, ptr noundef nonnull %4) #8
  %23 = load ptr, ptr %19, align 8
  %.not13 = icmp eq ptr %23, null
  br i1 %.not13, label %24, label %29

24:                                               ; preds = %21
  %25 = icmp eq ptr %.sroa.08.0.i, null
  br i1 %25, label %_ZNK6HandleclEv.exit, label %26

26:                                               ; preds = %24
  %27 = load ptr, ptr %.sroa.08.0.i, align 8
  br label %_ZNK6HandleclEv.exit

_ZNK6HandleclEv.exit:                             ; preds = %24, %26
  %28 = phi ptr [ %27, %26 ], [ null, %24 ]
  tail call void @_ZN20vector_VectorPayload11set_payloadEP7oopDescS1_(ptr noundef %22, ptr noundef %28) #8
  br label %29

29:                                               ; preds = %21, %_ZN13VectorSupport23allocate_vector_payloadEP13InstanceKlassP5frameP11RegisterMapP10ScopeValueP10JavaThread.exit, %_ZNK6HandleclEv.exit
  %.0 = phi ptr [ %22, %_ZNK6HandleclEv.exit ], [ null, %_ZN13VectorSupport23allocate_vector_payloadEP13InstanceKlassP5frameP11RegisterMapP10ScopeValueP10JavaThread.exit ], [ null, %21 ]
  ret ptr %.0
}